target datalayout = "e-m:e-p270:32:32-p271:32:32-p272:64:64-i64:64-i128:128-f80:128-n8:16:32:64-S128"
target triple = "x86_64-pc-linux-gnu"

%"class.std::__cxx11::basic_string" = type { %"struct.std::__cxx11::basic_string<char>::_Alloc_hider", i64, %union.anon }
%"struct.std::__cxx11::basic_string<char>::_Alloc_hider" = type { ptr }
%union.anon = type { i64, [8 x i8] }

@.str.2 = private unnamed_addr constant [14 x i8] c"ARCH_DEBUGGER\00", align 1
@_ZN32pxrInternal_v0_24__pxrReserved__L23_archDebuggerAttachArgsE = internal global ptr null, align 8
@.str.3 = private unnamed_addr constant [8 x i8] c"/bin/sh\00", align 1
@.str.4 = private unnamed_addr constant [3 x i8] c"-c\00", align 1
@.str.5 = private unnamed_addr constant [3 x i8] c"%d\00", align 1

; Function Attrs: mustprogress uwtable
define hidden void @_ZN32pxrInternal_v0_24__pxrReserved__23Arch_InitDebuggerAttachEv() #0 personality ptr @__gxx_personality_v0 {
  %1 = alloca ptr, align 8
  %2 = alloca %"class.std::__cxx11::basic_string", align 8
  %3 = alloca i64, align 8
  %4 = alloca ptr, align 8
  %5 = alloca %"class.std::__cxx11::basic_string", align 8
  %6 = alloca ptr, align 8
  %7 = alloca i32, align 4
  %8 = alloca ptr, align 8
  %9 = alloca ptr, align 8
  %10 = call ptr @getenv(ptr noundef @.str.2) #10
  store ptr %10, ptr %1, align 8
  %11 = load ptr, ptr %1, align 8
  %12 = icmp ne ptr %11, null
  br i1 %12, label %13, label %158

13:                                               ; preds = %0
  %14 = load ptr, ptr %1, align 8
  %15 = getelementptr inbounds i8, ptr %14, i64 0
  %16 = load i8, ptr %15, align 1
  %17 = icmp ne i8 %16, 0
  br i1 %17, label %18, label %158

18:                                               ; preds = %13
  call void @_ZNSt7__cxx1112basic_stringIcSt11char_traitsIcESaIcEEC1Ev(ptr noundef nonnull align 8 dereferenceable(32) %2) #10
  store i64 0, ptr %3, align 8
  %19 = load ptr, ptr %1, align 8
  store ptr %19, ptr %4, align 8
  br label %20

20:                                               ; preds = %73, %18
  %21 = load ptr, ptr %4, align 8
  %22 = load i8, ptr %21, align 1
  %23 = icmp ne i8 %22, 0
  br i1 %23, label %24, label %76

24:                                               ; preds = %20
  %25 = load ptr, ptr %4, align 8
  %26 = getelementptr inbounds i8, ptr %25, i64 0
  %27 = load i8, ptr %26, align 1
  %28 = sext i8 %27 to i32
  %29 = icmp eq i32 %28, 37
  br i1 %29, label %30, label %41

30:                                               ; preds = %24
  %31 = load ptr, ptr %4, align 8
  %32 = getelementptr inbounds i8, ptr %31, i64 1
  %33 = load i8, ptr %32, align 1
  %34 = sext i8 %33 to i32
  %35 = icmp eq i32 %34, 112
  br i1 %35, label %36, label %41

36:                                               ; preds = %30
  %37 = load i64, ptr %3, align 8
  %38 = add i64 %37, 20
  store i64 %38, ptr %3, align 8
  %39 = load ptr, ptr %4, align 8
  %40 = getelementptr inbounds i8, ptr %39, i32 1
  store ptr %40, ptr %4, align 8
  br label %72

41:                                               ; preds = %30, %24
  %42 = load ptr, ptr %4, align 8
  %43 = getelementptr inbounds i8, ptr %42, i64 0
  %44 = load i8, ptr %43, align 1
  %45 = sext i8 %44 to i32
  %46 = icmp eq i32 %45, 37
  br i1 %46, label %47, label %68

47:                                               ; preds = %41
  %48 = load ptr, ptr %4, align 8
  %49 = getelementptr inbounds i8, ptr %48, i64 1
  %50 = load i8, ptr %49, align 1
  %51 = sext i8 %50 to i32
  %52 = icmp eq i32 %51, 101
  br i1 %52, label %53, label %68

53:                                               ; preds = %47
  %54 = call noundef zeroext i1 @_ZNKSt7__cxx1112basic_stringIcSt11char_traitsIcESaIcEE5emptyEv(ptr noundef nonnull align 8 dereferenceable(32) %2) #10
  br i1 %54, label %55, label %62

55:                                               ; preds = %53
  invoke void @_ZN32pxrInternal_v0_24__pxrReserved__21ArchGetExecutablePathB5cxx11Ev(ptr dead_on_unwind writable sret(%"class.std::__cxx11::basic_string") align 8 %5)
          to label %56 unwind label %58

56:                                               ; preds = %55
  %57 = call noundef nonnull align 8 dereferenceable(32) ptr @_ZNSt7__cxx1112basic_stringIcSt11char_traitsIcESaIcEEaSEOS4_(ptr noundef nonnull align 8 dereferenceable(32) %2, ptr noundef nonnull align 8 dereferenceable(32) %5) #10
  call void @_ZNSt7__cxx1112basic_stringIcSt11char_traitsIcESaIcEED1Ev(ptr noundef nonnull align 8 dereferenceable(32) %5) #10
  br label %62

58:                                               ; preds = %55
  %59 = landingpad { ptr, i32 }
          cleanup
  %60 = extractvalue { ptr, i32 } %59, 0
  store ptr %60, ptr %6, align 8
  %61 = extractvalue { ptr, i32 } %59, 1
  store i32 %61, ptr %7, align 4
  call void @_ZNSt7__cxx1112basic_stringIcSt11char_traitsIcESaIcEED1Ev(ptr noundef nonnull align 8 dereferenceable(32) %2) #10
  br label %159

62:                                               ; preds = %56, %53
  %63 = call noundef i64 @_ZNKSt7__cxx1112basic_stringIcSt11char_traitsIcESaIcEE4sizeEv(ptr noundef nonnull align 8 dereferenceable(32) %2) #10
  %64 = load i64, ptr %3, align 8
  %65 = add i64 %64, %63
  store i64 %65, ptr %3, align 8
  %66 = load ptr, ptr %4, align 8
  %67 = getelementptr inbounds i8, ptr %66, i32 1
  store ptr %67, ptr %4, align 8
  br label %71

68:                                               ; preds = %47, %41
  %69 = load i64, ptr %3, align 8
  %70 = add i64 %69, 1
  store i64 %70, ptr %3, align 8
  br label %71

71:                                               ; preds = %68, %62
  br label %72

72:                                               ; preds = %71, %36
  br label %73

73:                                               ; preds = %72
  %74 = load ptr, ptr %4, align 8
  %75 = getelementptr inbounds i8, ptr %74, i32 1
  store ptr %75, ptr %4, align 8
  br label %20, !llvm.loop !6

76:                                               ; preds = %20
  %77 = call noalias ptr @malloc(i64 noundef 32) #13
  store ptr %77, ptr @_ZN32pxrInternal_v0_24__pxrReserved__L23_archDebuggerAttachArgsE, align 8
  %78 = call noalias ptr @strdup(ptr noundef @.str.3) #10
  %79 = load ptr, ptr @_ZN32pxrInternal_v0_24__pxrReserved__L23_archDebuggerAttachArgsE, align 8
  %80 = getelementptr inbounds ptr, ptr %79, i64 0
  store ptr %78, ptr %80, align 8
  %81 = call noalias ptr @strdup(ptr noundef @.str.4) #10
  %82 = load ptr, ptr @_ZN32pxrInternal_v0_24__pxrReserved__L23_archDebuggerAttachArgsE, align 8
  %83 = getelementptr inbounds ptr, ptr %82, i64 1
  store ptr %81, ptr %83, align 8
  %84 = load i64, ptr %3, align 8
  %85 = add i64 %84, 1
  %86 = call noalias ptr @malloc(i64 noundef %85) #13
  %87 = load ptr, ptr @_ZN32pxrInternal_v0_24__pxrReserved__L23_archDebuggerAttachArgsE, align 8
  %88 = getelementptr inbounds ptr, ptr %87, i64 2
  store ptr %86, ptr %88, align 8
  %89 = load ptr, ptr @_ZN32pxrInternal_v0_24__pxrReserved__L23_archDebuggerAttachArgsE, align 8
  %90 = getelementptr inbounds ptr, ptr %89, i64 3
  store ptr null, ptr %90, align 8
  %91 = load ptr, ptr @_ZN32pxrInternal_v0_24__pxrReserved__L23_archDebuggerAttachArgsE, align 8
  %92 = getelementptr inbounds ptr, ptr %91, i64 2
  %93 = load ptr, ptr %92, align 8
  store ptr %93, ptr %8, align 8
  %94 = load ptr, ptr %1, align 8
  store ptr %94, ptr %9, align 8
  br label %95

95:                                               ; preds = %153, %76
  %96 = load ptr, ptr %9, align 8
  %97 = load i8, ptr %96, align 1
  %98 = icmp ne i8 %97, 0
  br i1 %98, label %99, label %156

99:                                               ; preds = %95
  %100 = load ptr, ptr %9, align 8
  %101 = getelementptr inbounds i8, ptr %100, i64 0
  %102 = load i8, ptr %101, align 1
  %103 = sext i8 %102 to i32
  %104 = icmp eq i32 %103, 37
  br i1 %104, label %105, label %125

105:                                              ; preds = %99
  %106 = load ptr, ptr %9, align 8
  %107 = getelementptr inbounds i8, ptr %106, i64 1
  %108 = load i8, ptr %107, align 1
  %109 = sext i8 %108 to i32
  %110 = icmp eq i32 %109, 112
  br i1 %110, label %111, label %125

111:                                              ; preds = %105
  %112 = load ptr, ptr %8, align 8
  %113 = call i32 @getpid() #10
  %114 = call i32 (ptr, ptr, ...) @sprintf(ptr noundef %112, ptr noundef @.str.5, i32 noundef %113) #10
  br label %115

115:                                              ; preds = %119, %111
  %116 = load ptr, ptr %8, align 8
  %117 = load i8, ptr %116, align 1
  %118 = icmp ne i8 %117, 0
  br i1 %118, label %119, label %122

119:                                              ; preds = %115
  %120 = load ptr, ptr %8, align 8
  %121 = getelementptr inbounds i8, ptr %120, i32 1
  store ptr %121, ptr %8, align 8
  br label %115, !llvm.loop !7

122:                                              ; preds = %115
  %123 = load ptr, ptr %9, align 8
  %124 = getelementptr inbounds i8, ptr %123, i32 1
  store ptr %124, ptr %9, align 8
  br label %152

125:                                              ; preds = %105, %99
  %126 = load ptr, ptr %9, align 8
  %127 = getelementptr inbounds i8, ptr %126, i64 0
  %128 = load i8, ptr %127, align 1
  %129 = sext i8 %128 to i32
  %130 = icmp eq i32 %129, 37
  br i1 %130, label %131, label %146

131:                                              ; preds = %125
  %132 = load ptr, ptr %9, align 8
  %133 = getelementptr inbounds i8, ptr %132, i64 1
  %134 = load i8, ptr %133, align 1
  %135 = sext i8 %134 to i32
  %136 = icmp eq i32 %135, 101
  br i1 %136, label %137, label %146

137:                                              ; preds = %131
  %138 = load ptr, ptr %8, align 8
  %139 = call noundef ptr @_ZNKSt7__cxx1112basic_stringIcSt11char_traitsIcESaIcEE5c_strEv(ptr noundef nonnull align 8 dereferenceable(32) %2) #10
  %140 = call ptr @strcat(ptr noundef %138, ptr noundef %139) #10
  %141 = call noundef i64 @_ZNKSt7__cxx1112basic_stringIcSt11char_traitsIcESaIcEE4sizeEv(ptr noundef nonnull align 8 dereferenceable(32) %2) #10
  %142 = load ptr, ptr %8, align 8
  %143 = getelementptr inbounds i8, ptr %142, i64 %141
  store ptr %143, ptr %8, align 8
  %144 = load ptr, ptr %9, align 8
  %145 = getelementptr inbounds i8, ptr %144, i32 1
  store ptr %145, ptr %9, align 8
  br label %151

146:                                              ; preds = %131, %125
  %147 = load ptr, ptr %9, align 8
  %148 = load i8, ptr %147, align 1
  %149 = load ptr, ptr %8, align 8
  %150 = getelementptr inbounds i8, ptr %149, i32 1
  store ptr %150, ptr %8, align 8
  store i8 %148, ptr %149, align 1
  br label %151

151:                                              ; preds = %146, %137
  br label %152

152:                                              ; preds = %151, %122
  br label %153

153:                                              ; preds = %152
  %154 = load ptr, ptr %9, align 8
  %155 = getelementptr inbounds i8, ptr %154, i32 1
  store ptr %155, ptr %9, align 8
  br label %95, !llvm.loop !8

156:                                              ; preds = %95
  %157 = load ptr, ptr %8, align 8
  store i8 0, ptr %157, align 1
  call void @_ZNSt7__cxx1112basic_stringIcSt11char_traitsIcESaIcEED1Ev(ptr noundef nonnull align 8 dereferenceable(32) %2) #10
  br label %158

158:                                              ; preds = %156, %13, %0
  ret void

159:                                              ; preds = %58
  %160 = load ptr, ptr %6, align 8
  %161 = load i32, ptr %7, align 4
  %162 = insertvalue { ptr, i32 } poison, ptr %160, 0
  %163 = insertvalue { ptr, i32 } %162, i32 %161, 1
  resume { ptr, i32 } %163
}