; Function Attrs: mustprogress uwtable
define hidden void @_ZN32pxrInternal_v0_24__pxrReserved__23Arch_InitDebuggerAttachEv() local_unnamed_addr #0 personality ptr @__gxx_personality_v0 {
  %1 = alloca %"class.std::__cxx11::basic_string", align 8
  %2 = alloca %"class.std::__cxx11::basic_string", align 8
  %3 = tail call ptr @getenv(ptr noundef nonnull @.str.2) #17
  %.not = icmp eq ptr %3, null
  br i1 %.not, label %57, label %4

4:                                                ; preds = %0
  %5 = load i8, ptr %3, align 1
  %.not42 = icmp eq i8 %5, 0
  br i1 %.not42, label %57, label %6

6:                                                ; preds = %4
  call void @_ZNSt7__cxx1112basic_stringIcSt11char_traitsIcESaIcEEC1Ev(ptr noundef nonnull align 8 dereferenceable(32) %1) #17
  br label %7

7:                                                ; preds = %26, %6
  %.037 = phi ptr [ %3, %6 ], [ %27, %26 ]
  %.035 = phi i64 [ 0, %6 ], [ %.136, %26 ]
  %8 = load i8, ptr %.037, align 1
  switch i8 %8, label %24 [
    i8 0, label %28
    i8 37, label %9
  ]

9:                                                ; preds = %7
  %10 = getelementptr inbounds nuw i8, ptr %.037, i64 1
  %11 = load i8, ptr %10, align 1
  switch i8 %11, label %24 [
    i8 112, label %12
    i8 101, label %14
  ]

12:                                               ; preds = %9
  %13 = add i64 %.035, 20
  br label %26

14:                                               ; preds = %9
  %15 = call noundef zeroext i1 @_ZNKSt7__cxx1112basic_stringIcSt11char_traitsIcESaIcEE5emptyEv(ptr noundef nonnull align 8 dereferenceable(32) %1) #17
  br i1 %15, label %16, label %21

16:                                               ; preds = %14
  invoke void @_ZN32pxrInternal_v0_24__pxrReserved__21ArchGetExecutablePathB5cxx11Ev(ptr dead_on_unwind nonnull writable sret(%"class.std::__cxx11::basic_string") align 8 %2)
          to label %17 unwind label %19

17:                                               ; preds = %16
  %18 = call noundef nonnull align 8 dereferenceable(32) ptr @_ZNSt7__cxx1112basic_stringIcSt11char_traitsIcESaIcEEaSEOS4_(ptr noundef nonnull align 8 dereferenceable(32) %1, ptr noundef nonnull align 8 dereferenceable(32) %2) #17
  call void @_ZNSt7__cxx1112basic_stringIcSt11char_traitsIcESaIcEED1Ev(ptr noundef nonnull align 8 dereferenceable(32) %2) #17
  br label %21

19:                                               ; preds = %16
  %20 = landingpad { ptr, i32 }
          cleanup
  call void @_ZNSt7__cxx1112basic_stringIcSt11char_traitsIcESaIcEED1Ev(ptr noundef nonnull align 8 dereferenceable(32) %1) #17
  resume { ptr, i32 } %20

21:                                               ; preds = %17, %14
  %22 = call noundef i64 @_ZNKSt7__cxx1112basic_stringIcSt11char_traitsIcESaIcEE4sizeEv(ptr noundef nonnull align 8 dereferenceable(32) %1) #17
  %23 = add i64 %22, %.035
  br label %26

24:                                               ; preds = %9, %7
  %25 = add i64 %.035, 1
  br label %26

26:                                               ; preds = %12, %24, %21
  %.138 = phi ptr [ %10, %12 ], [ %10, %21 ], [ %.037, %24 ]
  %.136 = phi i64 [ %13, %12 ], [ %23, %21 ], [ %25, %24 ]
  %27 = getelementptr inbounds nuw i8, ptr %.138, i64 1
  br label %7, !llvm.loop !6

28:                                               ; preds = %7
  %29 = call noalias dereferenceable_or_null(32) ptr @malloc(i64 noundef 32) #20
  store ptr %29, ptr @_ZN32pxrInternal_v0_24__pxrReserved__L23_archDebuggerAttachArgsE, align 8
  %30 = call noalias dereferenceable_or_null(8) ptr @strdup(ptr noundef nonnull @.str.3) #17
  store ptr %30, ptr %29, align 8
  %31 = call noalias dereferenceable_or_null(3) ptr @strdup(ptr noundef nonnull @.str.4) #17
  %32 = getelementptr inbounds nuw i8, ptr %29, i64 8
  store ptr %31, ptr %32, align 8
  %33 = add i64 %.035, 1
  %34 = call noalias ptr @malloc(i64 noundef %33) #20
  %35 = getelementptr inbounds nuw i8, ptr %29, i64 16
  store ptr %34, ptr %35, align 8
  %36 = getelementptr inbounds nuw i8, ptr %29, i64 24
  store ptr null, ptr %36, align 8
  br label %37

37:                                               ; preds = %.loopexit, %28
  %.033 = phi ptr [ %34, %28 ], [ %.2, %.loopexit ]
  %.0 = phi ptr [ %3, %28 ], [ %55, %.loopexit ]
  %38 = load i8, ptr %.0, align 1
  switch i8 %38, label %53 [
    i8 0, label %56
    i8 37, label %39
  ]

39:                                               ; preds = %37
  %40 = getelementptr inbounds nuw i8, ptr %.0, i64 1
  %41 = load i8, ptr %40, align 1
  switch i8 %41, label %53 [
    i8 112, label %42
    i8 101, label %48
  ]

42:                                               ; preds = %39
  %43 = call i32 @getpid() #17
  %44 = call i32 (ptr, ptr, ...) @sprintf(ptr noundef nonnull dereferenceable(1) %.033, ptr noundef nonnull dereferenceable(1) @.str.5, i32 noundef %43) #17
  br label %45

45:                                               ; preds = %45, %42
  %.134 = phi ptr [ %.033, %42 ], [ %47, %45 ]
  %46 = load i8, ptr %.134, align 1
  %.not45 = icmp eq i8 %46, 0
  %47 = getelementptr inbounds nuw i8, ptr %.134, i64 1
  br i1 %.not45, label %.loopexit, label %45, !llvm.loop !7

48:                                               ; preds = %39
  %49 = call noundef ptr @_ZNKSt7__cxx1112basic_stringIcSt11char_traitsIcESaIcEE5c_strEv(ptr noundef nonnull align 8 dereferenceable(32) %1) #17
  %50 = call ptr @strcat(ptr noundef nonnull dereferenceable(1) %.033, ptr noundef nonnull dereferenceable(1) %49) #17
  %51 = call noundef i64 @_ZNKSt7__cxx1112basic_stringIcSt11char_traitsIcESaIcEE4sizeEv(ptr noundef nonnull align 8 dereferenceable(32) %1) #17
  %52 = getelementptr inbounds i8, ptr %.033, i64 %51
  br label %.loopexit

53:                                               ; preds = %39, %37
  %54 = getelementptr inbounds nuw i8, ptr %.033, i64 1
  store i8 %38, ptr %.033, align 1
  br label %.loopexit

.loopexit:                                        ; preds = %45, %53, %48
  %.2 = phi ptr [ %52, %48 ], [ %54, %53 ], [ %.134, %45 ]
  %.1 = phi ptr [ %40, %48 ], [ %.0, %53 ], [ %40, %45 ]
  %55 = getelementptr inbounds nuw i8, ptr %.1, i64 1
  br label %37, !llvm.loop !8

56:                                               ; preds = %37
  store i8 0, ptr %.033, align 1
  call void @_ZNSt7__cxx1112basic_stringIcSt11char_traitsIcESaIcEED1Ev(ptr noundef nonnull align 8 dereferenceable(32) %1) #17
  br label %57

57:                                               ; preds = %56, %4, %0
  ret void
}